(dp1
S'OriginalConfig'
p2
ccopy_reg
_reconstructor
p3
(cWMCore.Configuration
Configuration
p4
c__builtin__
object
p5
NtRp6
(dp7
S'Site'
p8
g3
(cWMCore.Configuration
ConfigSection
p9
g5
NtRp10
(dp11
S'_internal_documentation'
p12
S''
sS'_internal_settings'
p13
c__builtin__
set
p14
((lp15
S'storageSite'
p16
atRp17
sS'_internal_name'
p18
g8
sS'_internal_docstrings'
p19
(dp20
sS'_internal_children'
p21
g14
((ltRp22
sg16
S'T3_TW_NTU_HEP'
p23
sS'_internal_parent_ref'
p24
NsbsS'_internal_sections'
p25
(lp26
S'General'
p27
aS'JobType'
p28
aS'Data'
p29
ag8
aS'User'
p30
aS'Debug'
p31
asg27
g3
(g9
g5
NtRp32
(dp33
S'transferLogs'
p34
I01
sg12
S''
sg13
g14
((lp35
g34
aS'transferOutputs'
p36
aS'workArea'
p37
aS'requestName'
p38
atRp39
sg18
g27
sg19
(dp40
sg36
I01
sg21
g14
((ltRp41
sg38
S'TSTARSELECT_SingleMuon_Run2015D-16Dec2015-v1_muchannel'
p42
sg24
Nsg37
S'work_area'
p43
sbsS'_internal_webapps'
p44
(lp45
sg30
g3
(g9
g5
NtRp46
(dp47
g12
S''
sg13
g14
((ltRp48
sg18
g30
sg19
(dp49
sg21
g14
((ltRp50
sg24
NsbsS'_internal_components'
p51
(lp52
sg31
g3
(g9
g5
NtRp53
(dp54
g12
S''
sg13
g14
((ltRp55
sg18
g31
sg19
(dp56
sg21
g14
((ltRp57
sg24
Nsbsg29
g3
(g9
g5
NtRp58
(dp59
S'inputDataset'
p60
S'/SingleMuon/Run2015D-16Dec2015-v1/MINIAOD'
p61
sS'splitting'
p62
S'LumiBased'
p63
sS'unitsPerJob'
p64
I32
sg12
S''
sg13
g14
((lp65
g60
ag64
ag62
aS'inputDBS'
p66
aS'outLFNDirBase'
p67
aS'lumiMask'
p68
atRp69
sg18
g29
sg66
S'global'
p70
sg19
(dp71
sg21
g14
((ltRp72
sg67
S'/store/user/yichen/tstar_76X/'
p73
sg24
Nsg68
S'https://cms-service-dqm.web.cern.ch/cms-service-dqm/CAF/certification/Collisions15/13TeV/Cert_246908-256869_13TeV_PromptReco_Collisions15_25ns_JSON.txt'
p74
sbsg28
g3
(g9
g5
NtRp75
(dp76
S'pyCfgParams'
p77
(lp78
S'Mode=0'
p79
asg12
S''
sg13
g14
((lp80
S'psetName'
p81
aS'pluginName'
p82
ag77
atRp83
sg18
g28
sg19
(dp84
sg82
S'Analysis'
p85
sg21
g14
((ltRp86
sg81
S'./run_production.py'
p87
sg24
NsbsbsS'voGroup'
p88
S''
sS'Server'
p89
S'cmsweb.cern.ch'
p90
sS'instance'
p91
S'prod'
p92
sS'RequestName'
p93
S'160312_133750:yichen_crab_TSTARSELECT_SingleMuon_Run2015D-16Dec2015-v1_muchannel'
p94
sS'voRole'
p95
S'NULL'
p96
sS'Port'
p97
S''
s.