(dp1
S'OriginalConfig'
p2
ccopy_reg
_reconstructor
p3
(cWMCore.Configuration
Configuration
p4
c__builtin__
object
p5
NtRp6
(dp7
S'Site'
p8
g3
(cWMCore.Configuration
ConfigSection
p9
g5
NtRp10
(dp11
S'_internal_documentation'
p12
S''
sS'_internal_settings'
p13
c__builtin__
set
p14
((lp15
S'storageSite'
p16
atRp17
sS'_internal_name'
p18
g8
sS'_internal_docstrings'
p19
(dp20
sS'_internal_children'
p21
g14
((ltRp22
sg16
S'T3_TW_NTU_HEP'
p23
sS'_internal_parent_ref'
p24
NsbsS'_internal_sections'
p25
(lp26
S'General'
p27
aS'JobType'
p28
aS'Data'
p29
ag8
aS'User'
p30
aS'Debug'
p31
asg27
g3
(g9
g5
NtRp32
(dp33
S'transferLogs'
p34
I01
sg12
S''
sg13
g14
((lp35
g34
aS'transferOutputs'
p36
aS'workArea'
p37
aS'requestName'
p38
atRp39
sg18
g27
sg19
(dp40
sg36
I01
sg21
g14
((ltRp41
sg38
S'TSTARSELECT_DYJetsToLL_M-50_HT-200to400_TuneCUETP8M1_13TeV-madgraphMLM-pythia8_muchannel'
p42
sg24
Nsg37
S'work_area'
p43
sbsS'_internal_webapps'
p44
(lp45
sg30
g3
(g9
g5
NtRp46
(dp47
g12
S''
sg13
g14
((ltRp48
sg18
g30
sg19
(dp49
sg21
g14
((ltRp50
sg24
NsbsS'_internal_components'
p51
(lp52
sg31
g3
(g9
g5
NtRp53
(dp54
g12
S''
sg13
g14
((ltRp55
sg18
g31
sg19
(dp56
sg21
g14
((ltRp57
sg24
Nsbsg29
g3
(g9
g5
NtRp58
(dp59
S'inputDataset'
p60
S'/DYJetsToLL_M-50_HT-200to400_TuneCUETP8M1_13TeV-madgraphMLM-pythia8/RunIIFall15MiniAODv2-PU25nsData2015v1_76X_mcRun2_asymptotic_v12-v1/MINIAODSIM'
p61
sS'splitting'
p62
S'FileBased'
p63
sS'unitsPerJob'
p64
I32
sg12
S''
sg13
g14
((lp65
g60
ag64
aS'outLFNDirBase'
p66
aS'inputDBS'
p67
ag62
atRp68
sg18
g29
sg67
S'global'
p69
sg19
(dp70
sg21
g14
((ltRp71
sg66
S'/store/user/yichen/tstar_76X/'
p72
sg24
Nsbsg28
g3
(g9
g5
NtRp73
(dp74
S'pyCfgParams'
p75
(lp76
S'Mode=0'
p77
asg12
S''
sg13
g14
((lp78
S'psetName'
p79
aS'pluginName'
p80
ag75
atRp81
sg18
g28
sg19
(dp82
sg80
S'Analysis'
p83
sg21
g14
((ltRp84
sg79
S'./run_production.py'
p85
sg24
NsbsbsS'voGroup'
p86
S''
sS'Server'
p87
S'cmsweb.cern.ch'
p88
sS'instance'
p89
S'prod'
p90
sS'RequestName'
p91
S'160312_133326:yichen_crab_TSTARSELECT_DYJetsToLL_M-50_HT-200to400_TuneCUETP8M1_13TeV-madgraphMLM-pythia8_muchannel'
p92
sS'voRole'
p93
S'NULL'
p94
sS'Port'
p95
S''
s.